target datalayout = "e-m:e-p270:32:32-p271:32:32-p272:64:64-i64:64-i128:128-f80:128-n8:16:32:64-S128"
target triple = "x86_64-pc-linux-gnu"

%union.pthread_mutex_t = type { %struct.__pthread_mutex_s }
%struct.__pthread_mutex_s = type { i32, i32, i32, i32, i32, i16, i16, %struct.__pthread_internal_list }
%struct.__pthread_internal_list = type { ptr, ptr }
%struct.step_complete_t = type { %union.pthread_cond_t, %union.pthread_mutex_t, i32, i32, i32, ptr, i32, i32, i8, ptr, i32, ptr }
%union.pthread_cond_t = type { %struct.__pthread_cond_s }
%struct.__pthread_cond_s = type { %union.__atomic_wide_counter, %union.__atomic_wide_counter, [2 x i32], [2 x i32], i32, i32, [2 x i32] }
%union.__atomic_wide_counter = type { i64 }
%struct.log_options_t = type { i32, i32, i32, i8, i8, i8, i32 }
%struct.slurmd_config = type { ptr, ptr, i32, [4096 x i8], ptr, ptr, ptr, ptr, i16, i16, i16, i16, ptr, i16, i64, i16, i16, i16, i16, i16, i16, i16, i16, i16, i16, i16, i64, i64, i32, i32, i16, ptr, ptr, ptr, i32, ptr, ptr, ptr, ptr, ptr, ptr, ptr, ptr, ptr, ptr, i32, ptr, ptr, i16, i32, i32, %struct.log_options_t, i32, i16, i64, i8, i8, i8, i8, i8, %union.pthread_mutex_t, i16, ptr, %union.pthread_cond_t, ptr, %union.pthread_cond_t, i8, i8, ptr, ptr }
%struct.stepd_step_rec_t = type { ptr, ptr, i32, %union.pthread_cond_t, %union.pthread_mutex_t, %struct.slurm_step_id_msg, i32, i32, i32, i32, i32, i32, ptr, ptr, i32, i32, ptr, i32, i32, i32, i32, i32, ptr, ptr, ptr, ptr, i32, i32, i64, i64, i16, i32, ptr, ptr, ptr, i32, ptr, i32, ptr, i32, ptr, i16, i32, i32, i32, ptr, i32, ptr, ptr, ptr, ptr, i32, i32, ptr, ptr, i8, i8, i8, i64, i32, ptr, ptr, ptr, ptr, ptr, ptr, ptr, ptr, ptr, ptr, i32, i32, ptr, i8, %union.pthread_cond_t, %union.pthread_mutex_t, i64, ptr, i32, i32, i32, ptr, i64, ptr, ptr, i8, ptr, i16, ptr, ptr, ptr, ptr, ptr, ptr, i64, ptr, i64, ptr, i16, i8, i16, i32, ptr, i16, ptr, ptr, i16, ptr, ptr, ptr, i8 }
%struct.slurm_step_id_msg = type { i64, i32, i32, i32 }

@time_limit_thread_shutdown = dso_local global i8 0, align 1
@time_limit_thread_id = dso_local global i64 0, align 8
@conf = dso_local global ptr null, align 8
@cleanup_mutex = internal global %union.pthread_mutex_t zeroinitializer, align 8
@.str.15 = private unnamed_addr constant [29 x i8] c"%s: pthread_mutex_lock(): %m\00", align 1
@__func__.stepd_cleanup = private unnamed_addr constant [14 x i8] c"stepd_cleanup\00", align 1
@cleanup = internal global i8 0, align 1
@.str.16 = private unnamed_addr constant [35 x i8] c"%s: step is NULL, skipping cleanup\00", align 1
@.str.17 = private unnamed_addr constant [23 x i8] c"%s: pthread_join(): %m\00", align 1
@.str.18 = private unnamed_addr constant [33 x i8] c"container_g_stepd_delete(%u): %m\00", align 1
@.str.19 = private unnamed_addr constant [31 x i8] c"%s: pthread_mutex_unlock(): %m\00", align 1
@step_complete = external global %struct.step_complete_t, align 8
@.str.20 = private unnamed_addr constant [54 x i8] c"%s: done with step (rc[0x%x]:%s, cleanup_rc[0x%x]:%s)\00", align 1
@.str.21 = private unnamed_addr constant [15 x i8] c"done with step\00", align 1

; Function Attrs: nounwind uwtable
define dso_local i32 @stepd_cleanup(ptr noundef %0, ptr noundef %1, ptr noundef %2, i32 noundef %3, i1 noundef zeroext %4) #0 {
  %6 = alloca ptr, align 8
  %7 = alloca ptr, align 8
  %8 = alloca ptr, align 8
  %9 = alloca i32, align 4
  %10 = alloca i8, align 1
  %11 = alloca i32, align 4
  %12 = alloca i32, align 4
  %13 = alloca i32, align 4
  %14 = alloca i32, align 4
  store ptr %0, ptr %6, align 8
  store ptr %1, ptr %7, align 8
  store ptr %2, ptr %8, align 8
  store i32 %3, ptr %9, align 4
  %15 = zext i1 %4 to i8
  store i8 %15, ptr %10, align 1
  store i8 1, ptr @time_limit_thread_shutdown, align 1
  br label %16

16:                                               ; preds = %5
  call void @llvm.lifetime.start.p0(i64 4, ptr %11) #9
  %17 = call i32 @pthread_mutex_lock(ptr noundef @cleanup_mutex) #9
  store i32 %17, ptr %11, align 4
  %18 = load i32, ptr %11, align 4
  %19 = icmp ne i32 %18, 0
  br i1 %19, label %20, label %23

20:                                               ; preds = %16
  %21 = load i32, ptr %11, align 4
  %22 = call ptr @__errno_location() #10
  store i32 %21, ptr %22, align 4
  call void (ptr, ...) @fatal_abort(ptr noundef @.str.15, ptr noundef @__func__.stepd_cleanup) #11
  unreachable

23:                                               ; preds = %16
  call void @llvm.lifetime.end.p0(i64 4, ptr %11) #9
  br label %24

24:                                               ; preds = %23
  %25 = load i8, ptr @cleanup, align 1, !range !8, !noundef !9
  %26 = trunc i8 %25 to i1
  br i1 %26, label %27, label %28

27:                                               ; preds = %24
  br label %134

28:                                               ; preds = %24
  %29 = load ptr, ptr %7, align 8
  %30 = icmp ne ptr %29, null
  br i1 %30, label %33, label %31

31:                                               ; preds = %28
  %32 = call i32 (ptr, ...) @error(ptr noundef @.str.16, ptr noundef @__func__.stepd_cleanup)
  br label %134

33:                                               ; preds = %28
  %34 = load i8, ptr %10, align 1, !range !8, !noundef !9
  %35 = trunc i8 %34 to i1
  br i1 %35, label %76, label %36

36:                                               ; preds = %33
  %37 = load ptr, ptr %7, align 8
  %38 = getelementptr inbounds nuw %struct.stepd_step_rec_t, ptr %37, i32 0, i32 56
  %39 = load i8, ptr %38, align 1, !range !8, !noundef !9
  %40 = trunc i8 %39 to i1
  br i1 %40, label %41, label %44

41:                                               ; preds = %36
  %42 = load ptr, ptr %7, align 8
  %43 = load i32, ptr %9, align 4
  call void @batch_finish(ptr noundef %42, i32 noundef %43)
  br label %44

44:                                               ; preds = %41, %36
  %45 = load ptr, ptr %7, align 8
  %46 = getelementptr inbounds nuw %struct.stepd_step_rec_t, ptr %45, i32 0, i32 77
  %47 = load ptr, ptr %46, align 8
  %48 = icmp ne ptr %47, null
  br i1 %48, label %49, label %54

49:                                               ; preds = %44
  %50 = load ptr, ptr %7, align 8
  %51 = getelementptr inbounds nuw %struct.stepd_step_rec_t, ptr %50, i32 0, i32 77
  %52 = load ptr, ptr %51, align 8
  %53 = call i32 @eio_signal_shutdown(ptr noundef %52)
  br label %54

54:                                               ; preds = %49, %44
  br label %55

55:                                               ; preds = %54
  call void @llvm.lifetime.start.p0(i64 4, ptr %12) #9
  store i32 0, ptr %12, align 4
  %56 = load ptr, ptr %7, align 8
  %57 = getelementptr inbounds nuw %struct.stepd_step_rec_t, ptr %56, i32 0, i32 76
  %58 = load i64, ptr %57, align 8
  %59 = icmp ne i64 %58, 0
  br i1 %59, label %60, label %67

60:                                               ; preds = %55
  %61 = load ptr, ptr %7, align 8
  %62 = getelementptr inbounds nuw %struct.stepd_step_rec_t, ptr %61, i32 0, i32 76
  %63 = load i64, ptr %62, align 8
  %64 = call i32 @pthread_join(i64 noundef %63, ptr noundef null)
  store i32 %64, ptr %12, align 4
  %65 = load ptr, ptr %7, align 8
  %66 = getelementptr inbounds nuw %struct.stepd_step_rec_t, ptr %65, i32 0, i32 76
  store i64 0, ptr %66, align 8
  br label %67

67:                                               ; preds = %60, %55
  %68 = load i32, ptr %12, align 4
  %69 = icmp ne i32 %68, 0
  br i1 %69, label %70, label %74

70:                                               ; preds = %67
  %71 = load i32, ptr %12, align 4
  %72 = call ptr @__errno_location() #10
  store i32 %71, ptr %72, align 4
  %73 = call i32 (ptr, ...) @error(ptr noundef @.str.17, ptr noundef @__func__.stepd_cleanup)
  br label %74

74:                                               ; preds = %70, %67
  call void @llvm.lifetime.end.p0(i64 4, ptr %12) #9
  br label %75

75:                                               ; preds = %74
  br label %76

76:                                               ; preds = %75, %33
  %77 = call i32 @mpi_fini()
  %78 = load ptr, ptr %7, align 8
  %79 = getelementptr inbounds nuw %struct.stepd_step_rec_t, ptr %78, i32 0, i32 82
  %80 = load i64, ptr %79, align 8
  %81 = call i32 @proctrack_g_destroy(i64 noundef %80)
  %82 = load ptr, ptr @conf, align 8
  %83 = getelementptr inbounds nuw %struct.slurmd_config, ptr %82, i32 0, i32 33
  %84 = load ptr, ptr %83, align 8
  %85 = icmp ne ptr %84, null
  br i1 %85, label %86, label %91

86:                                               ; preds = %76
  %87 = load ptr, ptr @conf, align 8
  %88 = getelementptr inbounds nuw %struct.slurmd_config, ptr %87, i32 0, i32 33
  %89 = load ptr, ptr %88, align 8
  %90 = call i32 @remove(ptr noundef %89) #9
  br label %91

91:                                               ; preds = %86, %76
  %92 = load ptr, ptr %7, align 8
  %93 = getelementptr inbounds nuw %struct.stepd_step_rec_t, ptr %92, i32 0, i32 1
  %94 = load ptr, ptr %93, align 8
  %95 = icmp ne ptr %94, null
  br i1 %95, label %96, label %98

96:                                               ; preds = %91
  %97 = load ptr, ptr %7, align 8
  call void @cleanup_container(ptr noundef %97)
  br label %98

98:                                               ; preds = %96, %91
  %99 = load ptr, ptr %7, align 8
  %100 = getelementptr inbounds nuw %struct.stepd_step_rec_t, ptr %99, i32 0, i32 5
  %101 = getelementptr inbounds nuw %struct.slurm_step_id_msg, ptr %100, i32 0, i32 3
  %102 = load i32, ptr %101, align 8
  %103 = icmp eq i32 %102, -4
  br i1 %103, label %104, label %118

104:                                              ; preds = %98
  %105 = load ptr, ptr %7, align 8
  %106 = getelementptr inbounds nuw %struct.stepd_step_rec_t, ptr %105, i32 0, i32 5
  %107 = getelementptr inbounds nuw %struct.slurm_step_id_msg, ptr %106, i32 0, i32 1
  %108 = load i32, ptr %107, align 8
  %109 = call i32 @container_g_stepd_delete(i32 noundef %108)
  %110 = icmp ne i32 %109, 0
  br i1 %110, label %111, label %117

111:                                              ; preds = %104
  %112 = load ptr, ptr %7, align 8
  %113 = getelementptr inbounds nuw %struct.stepd_step_rec_t, ptr %112, i32 0, i32 5
  %114 = getelementptr inbounds nuw %struct.slurm_step_id_msg, ptr %113, i32 0, i32 1
  %115 = load i32, ptr %114, align 8
  %116 = call i32 (ptr, ...) @error(ptr noundef @.str.18, i32 noundef %115)
  br label %117

117:                                              ; preds = %111, %104
  br label %118

118:                                              ; preds = %117, %98
  call void @run_command_shutdown()
  br label %119

119:                                              ; preds = %118
  call void @llvm.lifetime.start.p0(i64 4, ptr %13) #9
  store i32 0, ptr %13, align 4
  %120 = load i64, ptr @time_limit_thread_id, align 8
  %121 = icmp ne i64 %120, 0
  br i1 %121, label %122, label %125

122:                                              ; preds = %119
  %123 = load i64, ptr @time_limit_thread_id, align 8
  %124 = call i32 @pthread_join(i64 noundef %123, ptr noundef null)
  store i32 %124, ptr %13, align 4
  store i64 0, ptr @time_limit_thread_id, align 8
  br label %125

125:                                              ; preds = %122, %119
  %126 = load i32, ptr %13, align 4
  %127 = icmp ne i32 %126, 0
  br i1 %127, label %128, label %132

128:                                              ; preds = %125
  %129 = load i32, ptr %13, align 4
  %130 = call ptr @__errno_location() #10
  store i32 %129, ptr %130, align 4
  %131 = call i32 (ptr, ...) @error(ptr noundef @.str.17, ptr noundef @__func__.stepd_cleanup)
  br label %132

132:                                              ; preds = %128, %125
  call void @llvm.lifetime.end.p0(i64 4, ptr %13) #9
  br label %133

133:                                              ; preds = %132
  store i8 1, ptr @cleanup, align 1
  br label %134

134:                                              ; preds = %133, %31, %27
  br label %135

135:                                              ; preds = %134
  call void @llvm.lifetime.start.p0(i64 4, ptr %14) #9
  %136 = call i32 @pthread_mutex_unlock(ptr noundef @cleanup_mutex) #9
  store i32 %136, ptr %14, align 4
  %137 = load i32, ptr %14, align 4
  %138 = icmp ne i32 %137, 0
  br i1 %138, label %139, label %142

139:                                              ; preds = %135
  %140 = load i32, ptr %14, align 4
  %141 = call ptr @__errno_location() #10
  store i32 %140, ptr %141, align 4
  call void (ptr, ...) @fatal_abort(ptr noundef @.str.19, ptr noundef @__func__.stepd_cleanup) #11
  unreachable

142:                                              ; preds = %135
  call void @llvm.lifetime.end.p0(i64 4, ptr %14) #9
  br label %143

143:                                              ; preds = %142
  %144 = load i32, ptr %9, align 4
  %145 = icmp ne i32 %144, 0
  br i1 %145, label %149, label %146

146:                                              ; preds = %143
  %147 = load i32, ptr getelementptr inbounds nuw (%struct.step_complete_t, ptr @step_complete, i32 0, i32 10), align 8
  %148 = icmp ne i32 %147, 0
  br i1 %148, label %149, label %164

149:                                              ; preds = %146, %143
  br label %150

150:                                              ; preds = %149
  br label %151

151:                                              ; preds = %150
  %152 = call i32 @get_log_level()
  %153 = icmp sge i32 %152, 3
  br i1 %153, label %154, label %161

154:                                              ; preds = %151
  %155 = load i32, ptr getelementptr inbounds nuw (%struct.step_complete_t, ptr @step_complete, i32 0, i32 10), align 8
  %156 = load i32, ptr getelementptr inbounds nuw (%struct.step_complete_t, ptr @step_complete, i32 0, i32 10), align 8
  %157 = call ptr @slurm_strerror(i32 noundef %156)
  %158 = load i32, ptr %9, align 4
  %159 = load i32, ptr %9, align 4
  %160 = call ptr @slurm_strerror(i32 noundef %159)
  call void (i32, ptr, ...) @log_var(i32 noundef 3, ptr noundef @.str.20, ptr noundef @__func__.stepd_cleanup, i32 noundef %155, ptr noundef %157, i32 noundef %158, ptr noundef %160)
  br label %161

161:                                              ; preds = %154, %151
  br label %162

162:                                              ; preds = %161
  br label %163

163:                                              ; preds = %162
  br label %173

164:                                              ; preds = %146
  br label %165

165:                                              ; preds = %164
  br label %166

166:                                              ; preds = %165
  %167 = call i32 @get_log_level()
  %168 = icmp sge i32 %167, 3
  br i1 %168, label %169, label %170

169:                                              ; preds = %166
  call void (i32, ptr, ...) @log_var(i32 noundef 3, ptr noundef @.str.21)
  br label %170

170:                                              ; preds = %169, %166
  br label %171

171:                                              ; preds = %170
  br label %172

172:                                              ; preds = %171
  br label %173

173:                                              ; preds = %172, %163
  call void @conmgr_request_shutdown()
  %174 = load i32, ptr %9, align 4
  ret i32 %174
}