; Function Attrs: nounwind uwtable
define dso_local noundef i32 @stepd_cleanup(ptr readnone captures(none) %0, ptr noundef %1, ptr readnone captures(none) %2, i32 noundef returned %3, i1 noundef zeroext %4) local_unnamed_addr #1 {
  store i8 1, ptr @time_limit_thread_shutdown, align 1
  %6 = tail call i32 @pthread_mutex_lock(ptr noundef nonnull @cleanup_mutex) #15
  %.not = icmp eq i32 %6, 0
  br i1 %.not, label %9, label %7

7:                                                ; preds = %5
  %8 = tail call ptr @__errno_location() #16
  store i32 %6, ptr %8, align 4
  tail call void (ptr, ...) @fatal_abort(ptr noundef nonnull @.str.15, ptr noundef nonnull @__func__.stepd_cleanup) #17
  unreachable

9:                                                ; preds = %5
  %.b36 = load i1, ptr @cleanup, align 1
  br i1 %.b36, label %63, label %10

10:                                               ; preds = %9
  %.not37 = icmp eq ptr %1, null
  br i1 %.not37, label %11, label %13

11:                                               ; preds = %10
  %12 = tail call i32 (ptr, ...) @error(ptr noundef nonnull @.str.16, ptr noundef nonnull @__func__.stepd_cleanup) #15
  br label %63

13:                                               ; preds = %10
  br i1 %4, label %.thread, label %14

14:                                               ; preds = %13
  %15 = getelementptr inbounds nuw i8, ptr %1, i64 441
  %16 = load i8, ptr %15, align 1, !range !24, !noundef !25
  %17 = trunc nuw i8 %16 to i1
  br i1 %17, label %18, label %19

18:                                               ; preds = %14
  tail call void @batch_finish(ptr noundef nonnull %1, i32 noundef %3) #15
  br label %19

19:                                               ; preds = %18, %14
  %20 = getelementptr inbounds nuw i8, ptr %1, i64 664
  %21 = load ptr, ptr %20, align 8
  %.not38 = icmp eq ptr %21, null
  br i1 %.not38, label %24, label %22

22:                                               ; preds = %19
  %23 = tail call i32 @eio_signal_shutdown(ptr noundef nonnull %21) #15
  br label %24

24:                                               ; preds = %19, %22
  %25 = getelementptr inbounds nuw i8, ptr %1, i64 656
  %26 = load i64, ptr %25, align 8
  %.not39 = icmp eq i64 %26, 0
  br i1 %.not39, label %.thread, label %27

27:                                               ; preds = %24
  %28 = tail call i32 @pthread_join(i64 noundef %26, ptr noundef null) #15
  store i64 0, ptr %25, align 8
  %.not40 = icmp eq i32 %28, 0
  br i1 %.not40, label %.thread, label %29

29:                                               ; preds = %27
  %30 = tail call ptr @__errno_location() #16
  store i32 %28, ptr %30, align 4
  %31 = tail call i32 (ptr, ...) @error(ptr noundef nonnull @.str.17, ptr noundef nonnull @__func__.stepd_cleanup) #15
  br label %.thread

.thread:                                          ; preds = %24, %27, %29, %13
  %32 = tail call i32 @mpi_fini() #15
  %33 = getelementptr inbounds nuw i8, ptr %1, i64 696
  %34 = load i64, ptr %33, align 8
  %35 = tail call i32 @proctrack_g_destroy(i64 noundef %34) #15
  %36 = load ptr, ptr @conf, align 8
  %37 = getelementptr inbounds nuw i8, ptr %36, i64 4256
  %38 = load ptr, ptr %37, align 8
  %.not41 = icmp eq ptr %38, null
  br i1 %.not41, label %41, label %39

39:                                               ; preds = %.thread
  %40 = tail call i32 @remove(ptr noundef nonnull %38) #15
  br label %41

41:                                               ; preds = %39, %.thread
  %42 = getelementptr inbounds nuw i8, ptr %1, i64 8
  %43 = load ptr, ptr %42, align 8
  %.not42 = icmp eq ptr %43, null
  br i1 %.not42, label %45, label %44

44:                                               ; preds = %41
  tail call void @cleanup_container(ptr noundef nonnull %1) #15
  br label %45

45:                                               ; preds = %44, %41
  %46 = getelementptr inbounds nuw i8, ptr %1, i64 128
  %47 = load i32, ptr %46, align 8
  %48 = icmp eq i32 %47, -4
  br i1 %48, label %49, label %56

49:                                               ; preds = %45
  %50 = getelementptr inbounds nuw i8, ptr %1, i64 120
  %51 = load i32, ptr %50, align 8
  %52 = tail call i32 @container_g_stepd_delete(i32 noundef %51) #15
  %.not43 = icmp eq i32 %52, 0
  br i1 %.not43, label %56, label %53

53:                                               ; preds = %49
  %54 = load i32, ptr %50, align 8
  %55 = tail call i32 (ptr, ...) @error(ptr noundef nonnull @.str.18, i32 noundef %54) #15
  br label %56

56:                                               ; preds = %49, %53, %45
  tail call void @run_command_shutdown() #15
  %57 = load i64, ptr @time_limit_thread_id, align 8
  %.not44 = icmp eq i64 %57, 0
  br i1 %.not44, label %.thread49, label %58

58:                                               ; preds = %56
  %59 = tail call i32 @pthread_join(i64 noundef %57, ptr noundef null) #15
  store i64 0, ptr @time_limit_thread_id, align 8
  %.not45 = icmp eq i32 %59, 0
  br i1 %.not45, label %.thread49, label %60

60:                                               ; preds = %58
  %61 = tail call ptr @__errno_location() #16
  store i32 %59, ptr %61, align 4
  %62 = tail call i32 (ptr, ...) @error(ptr noundef nonnull @.str.17, ptr noundef nonnull @__func__.stepd_cleanup) #15
  br label %.thread49

.thread49:                                        ; preds = %56, %60, %58
  store i1 true, ptr @cleanup, align 1
  br label %63

63:                                               ; preds = %11, %.thread49, %9
  %64 = tail call i32 @pthread_mutex_unlock(ptr noundef nonnull @cleanup_mutex) #15
  %.not46 = icmp eq i32 %64, 0
  br i1 %.not46, label %67, label %65

65:                                               ; preds = %63
  %66 = tail call ptr @__errno_location() #16
  store i32 %64, ptr %66, align 4
  tail call void (ptr, ...) @fatal_abort(ptr noundef nonnull @.str.19, ptr noundef nonnull @__func__.stepd_cleanup) #17
  unreachable

67:                                               ; preds = %63
  %68 = icmp ne i32 %3, 0
  %69 = load i32, ptr getelementptr inbounds nuw (i8, ptr @step_complete, i64 136), align 8
  %70 = icmp ne i32 %69, 0
  %or.cond = select i1 %68, i1 true, i1 %70
  %71 = tail call i32 @get_log_level() #15
  %72 = icmp sgt i32 %71, 2
  br i1 %or.cond, label %73, label %78

73:                                               ; preds = %67
  br i1 %72, label %74, label %80

74:                                               ; preds = %73
  %75 = load i32, ptr getelementptr inbounds nuw (i8, ptr @step_complete, i64 136), align 8
  %76 = tail call ptr @slurm_strerror(i32 noundef %75) #15
  %77 = tail call ptr @slurm_strerror(i32 noundef %3) #15
  tail call void (i32, ptr, ...) @log_var(i32 noundef 3, ptr noundef nonnull @.str.20, ptr noundef nonnull @__func__.stepd_cleanup, i32 noundef %75, ptr noundef %76, i32 noundef %3, ptr noundef %77) #15
  br label %80

78:                                               ; preds = %67
  br i1 %72, label %79, label %80

79:                                               ; preds = %78
  tail call void (i32, ptr, ...) @log_var(i32 noundef 3, ptr noundef nonnull @.str.21) #15
  br label %80

80:                                               ; preds = %78, %79, %73, %74
  tail call void @conmgr_request_shutdown() #15
  ret i32 %3
}